target datalayout = "e-m:e-p270:32:32-p271:32:32-p272:64:64-i64:64-i128:128-f80:128-n8:16:32:64-S128"
target triple = "x86_64-pc-linux-gnu"

%"class.icu_77::ScientificNumberFormatter::MarkupStyle" = type { %"class.icu_77::ScientificNumberFormatter::Style", %"class.icu_77::UnicodeString", %"class.icu_77::UnicodeString" }
%"class.icu_77::ScientificNumberFormatter::Style" = type { %"class.icu_77::UObject" }
%"class.icu_77::UObject" = type { ptr }
%"class.icu_77::UnicodeString" = type { %"class.icu_77::Replaceable", %"union.icu_77::UnicodeString::StackBufferOrFields" }
%"class.icu_77::Replaceable" = type { %"class.icu_77::UObject" }
%"union.icu_77::UnicodeString::StackBufferOrFields" = type { %struct.anon.0, [32 x i8] }
%struct.anon.0 = type { i16, i32, i32, ptr }
%"class.icu_77::FieldPosition" = type <{ %"class.icu_77::UObject", i32, i32, i32, [4 x i8] }>

@_ZTVN6icu_7713FieldPositionE = available_externally unnamed_addr constant { [5 x ptr] } { [5 x ptr] [ptr null, ptr @_ZTIN6icu_7713FieldPositionE, ptr @_ZN6icu_7713FieldPositionD1Ev, ptr @_ZN6icu_7713FieldPositionD0Ev, ptr @_ZNK6icu_7713FieldPosition17getDynamicClassIDEv] }, align 8
@_ZTVN6icu_777UObjectE = available_externally unnamed_addr constant { [5 x ptr] } { [5 x ptr] [ptr null, ptr @_ZTIN6icu_777UObjectE, ptr @_ZN6icu_777UObjectD1Ev, ptr @_ZN6icu_777UObjectD0Ev, ptr @_ZNK6icu_777UObject17getDynamicClassIDEv] }, align 8

; Function Attrs: inlinehint mustprogress nounwind uwtable
define linkonce_odr noundef i32 @_ZNK6icu_7713UnicodeString14getShortLengthEv(ptr noundef nonnull align 8 dereferenceable(64) %0) #3 comdat align 2 {
  %2 = alloca ptr, align 8
  store ptr %0, ptr %2, align 8, !tbaa !21
  %3 = load ptr, ptr %2, align 8
  %4 = getelementptr inbounds nuw %"class.icu_77::UnicodeString", ptr %3, i32 0, i32 1
  %5 = getelementptr inbounds nuw %struct.anon.0, ptr %4, i32 0, i32 0
  %6 = load i16, ptr %5, align 8, !tbaa !53
  %7 = sext i16 %6 to i32
  %8 = ashr i32 %7, 5
  ret i32 %8
}

; Function Attrs: inlinehint mustprogress nounwind uwtable
define linkonce_odr noundef signext i8 @_ZNK6icu_7713UnicodeString14hasShortLengthEv(ptr noundef nonnull align 8 dereferenceable(64) %0) #3 comdat align 2 {
  %2 = alloca ptr, align 8
  store ptr %0, ptr %2, align 8, !tbaa !21
  %3 = load ptr, ptr %2, align 8
  %4 = getelementptr inbounds nuw %"class.icu_77::UnicodeString", ptr %3, i32 0, i32 1
  %5 = getelementptr inbounds nuw %struct.anon.0, ptr %4, i32 0, i32 0
  %6 = load i16, ptr %5, align 8, !tbaa !53
  %7 = sext i16 %6 to i32
  %8 = icmp sge i32 %7, 0
  %9 = zext i1 %8 to i8
  ret i8 %9
}

; Function Attrs: inlinehint mustprogress nounwind uwtable
define linkonce_odr void @_ZN6icu_777UObjectC2Ev(ptr noundef nonnull align 8 dereferenceable(8) %0) unnamed_addr #3 comdat align 2 {
  %2 = alloca ptr, align 8
  store ptr %0, ptr %2, align 8, !tbaa !62
  %3 = load ptr, ptr %2, align 8
  store ptr getelementptr inbounds inrange(-16, 24) ({ [5 x ptr] }, ptr @_ZTVN6icu_777UObjectE, i32 0, i32 0, i32 2), ptr %3, align 8, !tbaa !15
  ret void
}

; Function Attrs: inlinehint mustprogress uwtable
define linkonce_odr noundef i32 @_ZNK6icu_7713UnicodeString6lengthEv(ptr noundef nonnull align 8 dereferenceable(64) %0) #7 comdat align 2 {
  %2 = alloca ptr, align 8
  store ptr %0, ptr %2, align 8, !tbaa !21
  %3 = load ptr, ptr %2, align 8
  %4 = call noundef signext i8 @_ZNK6icu_7713UnicodeString14hasShortLengthEv(ptr noundef nonnull align 8 dereferenceable(64) %3)
  %5 = icmp ne i8 %4, 0
  br i1 %5, label %6, label %8

6:                                                ; preds = %1
  %7 = call noundef i32 @_ZNK6icu_7713UnicodeString14getShortLengthEv(ptr noundef nonnull align 8 dereferenceable(64) %3)
  br label %12

8:                                                ; preds = %1
  %9 = getelementptr inbounds nuw %"class.icu_77::UnicodeString", ptr %3, i32 0, i32 1
  %10 = getelementptr inbounds nuw %struct.anon.0, ptr %9, i32 0, i32 1
  %11 = load i32, ptr %10, align 4, !tbaa !53
  br label %12

12:                                               ; preds = %8, %6
  %13 = phi i32 [ %7, %6 ], [ %11, %8 ]
  ret i32 %13
}

; Function Attrs: inlinehint mustprogress uwtable
define linkonce_odr noundef nonnull align 8 dereferenceable(64) ptr @_ZN6icu_7713UnicodeString6appendERKS0_(ptr noundef nonnull align 8 dereferenceable(64) %0, ptr noundef nonnull align 8 dereferenceable(64) %1) #7 comdat align 2 {
  %3 = alloca ptr, align 8
  %4 = alloca ptr, align 8
  store ptr %0, ptr %3, align 8, !tbaa !21
  store ptr %1, ptr %4, align 8, !tbaa !21
  %5 = load ptr, ptr %3, align 8
  %6 = load ptr, ptr %4, align 8, !tbaa !21
  %7 = load ptr, ptr %4, align 8, !tbaa !21
  %8 = call noundef i32 @_ZNK6icu_7713UnicodeString6lengthEv(ptr noundef nonnull align 8 dereferenceable(64) %7)
  %9 = call noundef nonnull align 8 dereferenceable(64) ptr @_ZN6icu_7713UnicodeString8doAppendERKS0_ii(ptr noundef nonnull align 8 dereferenceable(64) %5, ptr noundef nonnull align 8 dereferenceable(64) %6, i32 noundef 0, i32 noundef %8)
  ret ptr %9
}

; Function Attrs: mustprogress nounwind uwtable
define linkonce_odr noundef i32 @_ZNK6icu_7713FieldPosition11getEndIndexEv(ptr noundef nonnull align 8 dereferenceable(20) %0) #6 comdat align 2 {
  %2 = alloca ptr, align 8
  store ptr %0, ptr %2, align 8, !tbaa !43
  %3 = load ptr, ptr %2, align 8
  %4 = getelementptr inbounds nuw %"class.icu_77::FieldPosition", ptr %3, i32 0, i32 3
  %5 = load i32, ptr %4, align 8, !tbaa !49
  ret i32 %5
}

; Function Attrs: inlinehint mustprogress uwtable
define linkonce_odr noundef nonnull align 8 dereferenceable(64) ptr @_ZN6icu_7713UnicodeString6appendERKS0_ii(ptr noundef nonnull align 8 dereferenceable(64) %0, ptr noundef nonnull align 8 dereferenceable(64) %1, i32 noundef %2, i32 noundef %3) #7 comdat align 2 {
  %5 = alloca ptr, align 8
  %6 = alloca ptr, align 8
  %7 = alloca i32, align 4
  %8 = alloca i32, align 4
  store ptr %0, ptr %5, align 8, !tbaa !21
  store ptr %1, ptr %6, align 8, !tbaa !21
  store i32 %2, ptr %7, align 4, !tbaa !39
  store i32 %3, ptr %8, align 4, !tbaa !39
  %9 = load ptr, ptr %5, align 8
  %10 = load ptr, ptr %6, align 8, !tbaa !21
  %11 = load i32, ptr %7, align 4, !tbaa !39
  %12 = load i32, ptr %8, align 4, !tbaa !39
  %13 = call noundef nonnull align 8 dereferenceable(64) ptr @_ZN6icu_7713UnicodeString8doAppendERKS0_ii(ptr noundef nonnull align 8 dereferenceable(64) %9, ptr noundef nonnull align 8 dereferenceable(64) %10, i32 noundef %11, i32 noundef %12)
  ret ptr %13
}

; Function Attrs: mustprogress nounwind uwtable
define linkonce_odr noundef i32 @_ZNK6icu_7713FieldPosition13getBeginIndexEv(ptr noundef nonnull align 8 dereferenceable(20) %0) #6 comdat align 2 {
  %2 = alloca ptr, align 8
  store ptr %0, ptr %2, align 8, !tbaa !43
  %3 = load ptr, ptr %2, align 8
  %4 = getelementptr inbounds nuw %"class.icu_77::FieldPosition", ptr %3, i32 0, i32 2
  %5 = load i32, ptr %4, align 4, !tbaa !48
  ret i32 %5
}

; Function Attrs: mustprogress nounwind uwtable
define linkonce_odr noundef i32 @_ZNK6icu_7713FieldPosition8getFieldEv(ptr noundef nonnull align 8 dereferenceable(20) %0) #6 comdat align 2 {
  %2 = alloca ptr, align 8
  store ptr %0, ptr %2, align 8, !tbaa !43
  %3 = load ptr, ptr %2, align 8
  %4 = getelementptr inbounds nuw %"class.icu_77::FieldPosition", ptr %3, i32 0, i32 1
  %5 = load i32, ptr %4, align 8, !tbaa !45
  ret i32 %5
}

; Function Attrs: mustprogress nounwind uwtable
define linkonce_odr void @_ZN6icu_7713FieldPositionC2Ev(ptr noundef nonnull align 8 dereferenceable(20) %0) unnamed_addr #6 comdat align 2 {
  %2 = alloca ptr, align 8
  store ptr %0, ptr %2, align 8, !tbaa !43
  %3 = load ptr, ptr %2, align 8
  %4 = getelementptr inbounds i8, ptr %3, i64 0
  call void @llvm.memset.p0.i64(ptr align 8 %4, i8 0, i64 8, i1 false)
  call void @_ZN6icu_777UObjectC2Ev(ptr noundef nonnull align 8 dereferenceable(8) %3) #9
  store ptr getelementptr inbounds inrange(-16, 24) ({ [5 x ptr] }, ptr @_ZTVN6icu_7713FieldPositionE, i32 0, i32 0, i32 2), ptr %3, align 8, !tbaa !15
  %5 = getelementptr inbounds nuw %"class.icu_77::FieldPosition", ptr %3, i32 0, i32 1
  store i32 -1, ptr %5, align 8, !tbaa !45
  %6 = getelementptr inbounds nuw %"class.icu_77::FieldPosition", ptr %3, i32 0, i32 2
  store i32 0, ptr %6, align 4, !tbaa !48
  %7 = getelementptr inbounds nuw %"class.icu_77::FieldPosition", ptr %3, i32 0, i32 3
  store i32 0, ptr %7, align 8, !tbaa !49
  ret void
}

; Function Attrs: inlinehint mustprogress nounwind uwtable
define internal noundef signext i8 @_ZL9U_FAILURE10UErrorCode(i32 noundef %0) #3 {
  %2 = alloca i32, align 4
  store i32 %0, ptr %2, align 4, !tbaa !11
  %3 = load i32, ptr %2, align 4, !tbaa !11
  %4 = icmp sgt i32 %3, 0
  %5 = zext i1 %4 to i8
  ret i8 %5
}

; Function Attrs: mustprogress uwtable
define noundef nonnull align 8 dereferenceable(64) ptr @_ZNK6icu_7725ScientificNumberFormatter11MarkupStyle6formatERKNS_13UnicodeStringERNS_21FieldPositionIteratorES4_RS2_R10UErrorCode(ptr noundef nonnull align 8 dereferenceable(136) %0, ptr noundef nonnull align 8 dereferenceable(64) %1, ptr noundef nonnull align 8 dereferenceable(20) %2, ptr noundef nonnull align 8 dereferenceable(64) %3, ptr noundef nonnull align 8 dereferenceable(64) %4, ptr noundef nonnull align 4 dereferenceable(4) %5) unnamed_addr #0 align 2 personality ptr @__gxx_personality_v0 {
  %7 = alloca ptr, align 8
  %8 = alloca ptr, align 8
  %9 = alloca ptr, align 8
  %10 = alloca ptr, align 8
  %11 = alloca ptr, align 8
  %12 = alloca ptr, align 8
  %13 = alloca ptr, align 8
  %14 = alloca %"class.icu_77::FieldPosition", align 8
  %15 = alloca i32, align 4
  %16 = alloca ptr, align 8
  %17 = alloca i32, align 4
  store ptr %0, ptr %8, align 8, !tbaa !23
  store ptr %1, ptr %9, align 8, !tbaa !21
  store ptr %2, ptr %10, align 8, !tbaa !37
  store ptr %3, ptr %11, align 8, !tbaa !21
  store ptr %4, ptr %12, align 8, !tbaa !21
  store ptr %5, ptr %13, align 8, !tbaa !8
  %18 = load ptr, ptr %8, align 8
  %19 = load ptr, ptr %13, align 8, !tbaa !8
  %20 = load i32, ptr %19, align 4, !tbaa !11
  %21 = call noundef signext i8 @_ZL9U_FAILURE10UErrorCode(i32 noundef %20)
  %22 = icmp ne i8 %21, 0
  br i1 %22, label %23, label %25

23:                                               ; preds = %6
  %24 = load ptr, ptr %12, align 8, !tbaa !21
  store ptr %24, ptr %7, align 8
  br label %88

25:                                               ; preds = %6
  call void @llvm.lifetime.start.p0(i64 24, ptr %14) #9
  call void @_ZN6icu_7713FieldPositionC2Ev(ptr noundef nonnull align 8 dereferenceable(20) %14)
  call void @llvm.lifetime.start.p0(i64 4, ptr %15) #9
  store i32 0, ptr %15, align 4, !tbaa !39
  br label %26

26:                                               ; preds = %75, %25
  %27 = load ptr, ptr %10, align 8, !tbaa !37
  %28 = invoke noundef signext i8 @_ZN6icu_7721FieldPositionIterator4nextERNS_13FieldPositionE(ptr noundef nonnull align 8 dereferenceable(20) %27, ptr noundef nonnull align 8 dereferenceable(20) %14)
          to label %29 unwind label %34

29:                                               ; preds = %26
  %30 = icmp ne i8 %28, 0
  br i1 %30, label %31, label %76

31:                                               ; preds = %29
  %32 = invoke noundef i32 @_ZNK6icu_7713FieldPosition8getFieldEv(ptr noundef nonnull align 8 dereferenceable(20) %14)
          to label %33 unwind label %34

33:                                               ; preds = %31
  switch i32 %32, label %74 [
    i32 3, label %38
    i32 5, label %58
  ]

34:                                               ; preds = %82, %76, %69, %67, %63, %58, %53, %49, %47, %43, %38, %31, %26
  %35 = landingpad { ptr, i32 }
          cleanup
  %36 = extractvalue { ptr, i32 } %35, 0
  store ptr %36, ptr %16, align 8
  %37 = extractvalue { ptr, i32 } %35, 1
  store i32 %37, ptr %17, align 4
  call void @llvm.lifetime.end.p0(i64 4, ptr %15) #9
  call void @_ZN6icu_7713FieldPositionD1Ev(ptr noundef nonnull align 8 dereferenceable(20) %14) #9
  call void @llvm.lifetime.end.p0(i64 24, ptr %14) #9
  br label %90

38:                                               ; preds = %33
  %39 = load ptr, ptr %12, align 8, !tbaa !21
  %40 = load ptr, ptr %9, align 8, !tbaa !21
  %41 = load i32, ptr %15, align 4, !tbaa !39
  %42 = invoke noundef i32 @_ZNK6icu_7713FieldPosition13getBeginIndexEv(ptr noundef nonnull align 8 dereferenceable(20) %14)
          to label %43 unwind label %34

43:                                               ; preds = %38
  %44 = load i32, ptr %15, align 4, !tbaa !39
  %45 = sub nsw i32 %42, %44
  %46 = invoke noundef nonnull align 8 dereferenceable(64) ptr @_ZN6icu_7713UnicodeString6appendERKS0_ii(ptr noundef nonnull align 8 dereferenceable(64) %39, ptr noundef nonnull align 8 dereferenceable(64) %40, i32 noundef %41, i32 noundef %45)
          to label %47 unwind label %34

47:                                               ; preds = %43
  %48 = invoke noundef i32 @_ZNK6icu_7713FieldPosition11getEndIndexEv(ptr noundef nonnull align 8 dereferenceable(20) %14)
          to label %49 unwind label %34

49:                                               ; preds = %47
  store i32 %48, ptr %15, align 4, !tbaa !39
  %50 = load ptr, ptr %12, align 8, !tbaa !21
  %51 = load ptr, ptr %11, align 8, !tbaa !21
  %52 = invoke noundef nonnull align 8 dereferenceable(64) ptr @_ZN6icu_7713UnicodeString6appendERKS0_(ptr noundef nonnull align 8 dereferenceable(64) %50, ptr noundef nonnull align 8 dereferenceable(64) %51)
          to label %53 unwind label %34

53:                                               ; preds = %49
  %54 = load ptr, ptr %12, align 8, !tbaa !21
  %55 = getelementptr inbounds nuw %"class.icu_77::ScientificNumberFormatter::MarkupStyle", ptr %18, i32 0, i32 1
  %56 = invoke noundef nonnull align 8 dereferenceable(64) ptr @_ZN6icu_7713UnicodeString6appendERKS0_(ptr noundef nonnull align 8 dereferenceable(64) %54, ptr noundef nonnull align 8 dereferenceable(64) %55)
          to label %57 unwind label %34

57:                                               ; preds = %53
  br label %75

58:                                               ; preds = %33
  %59 = load ptr, ptr %12, align 8, !tbaa !21
  %60 = load ptr, ptr %9, align 8, !tbaa !21
  %61 = load i32, ptr %15, align 4, !tbaa !39
  %62 = invoke noundef i32 @_ZNK6icu_7713FieldPosition11getEndIndexEv(ptr noundef nonnull align 8 dereferenceable(20) %14)
          to label %63 unwind label %34

63:                                               ; preds = %58
  %64 = load i32, ptr %15, align 4, !tbaa !39
  %65 = sub nsw i32 %62, %64
  %66 = invoke noundef nonnull align 8 dereferenceable(64) ptr @_ZN6icu_7713UnicodeString6appendERKS0_ii(ptr noundef nonnull align 8 dereferenceable(64) %59, ptr noundef nonnull align 8 dereferenceable(64) %60, i32 noundef %61, i32 noundef %65)
          to label %67 unwind label %34

67:                                               ; preds = %63
  %68 = invoke noundef i32 @_ZNK6icu_7713FieldPosition11getEndIndexEv(ptr noundef nonnull align 8 dereferenceable(20) %14)
          to label %69 unwind label %34

69:                                               ; preds = %67
  store i32 %68, ptr %15, align 4, !tbaa !39
  %70 = load ptr, ptr %12, align 8, !tbaa !21
  %71 = getelementptr inbounds nuw %"class.icu_77::ScientificNumberFormatter::MarkupStyle", ptr %18, i32 0, i32 2
  %72 = invoke noundef nonnull align 8 dereferenceable(64) ptr @_ZN6icu_7713UnicodeString6appendERKS0_(ptr noundef nonnull align 8 dereferenceable(64) %70, ptr noundef nonnull align 8 dereferenceable(64) %71)
          to label %73 unwind label %34

73:                                               ; preds = %69
  br label %75

74:                                               ; preds = %33
  br label %75

75:                                               ; preds = %74, %73, %57
  br label %26, !llvm.loop !54

76:                                               ; preds = %29
  %77 = load ptr, ptr %12, align 8, !tbaa !21
  %78 = load ptr, ptr %9, align 8, !tbaa !21
  %79 = load i32, ptr %15, align 4, !tbaa !39
  %80 = load ptr, ptr %9, align 8, !tbaa !21
  %81 = invoke noundef i32 @_ZNK6icu_7713UnicodeString6lengthEv(ptr noundef nonnull align 8 dereferenceable(64) %80)
          to label %82 unwind label %34

82:                                               ; preds = %76
  %83 = load i32, ptr %15, align 4, !tbaa !39
  %84 = sub nsw i32 %81, %83
  %85 = invoke noundef nonnull align 8 dereferenceable(64) ptr @_ZN6icu_7713UnicodeString6appendERKS0_ii(ptr noundef nonnull align 8 dereferenceable(64) %77, ptr noundef nonnull align 8 dereferenceable(64) %78, i32 noundef %79, i32 noundef %84)
          to label %86 unwind label %34

86:                                               ; preds = %82
  %87 = load ptr, ptr %12, align 8, !tbaa !21
  store ptr %87, ptr %7, align 8
  call void @llvm.lifetime.end.p0(i64 4, ptr %15) #9
  call void @_ZN6icu_7713FieldPositionD1Ev(ptr noundef nonnull align 8 dereferenceable(20) %14) #9
  call void @llvm.lifetime.end.p0(i64 24, ptr %14) #9
  br label %88

88:                                               ; preds = %86, %23
  %89 = load ptr, ptr %7, align 8
  ret ptr %89

90:                                               ; preds = %34
  %91 = load ptr, ptr %16, align 8
  %92 = load i32, ptr %17, align 4
  %93 = insertvalue { ptr, i32 } poison, ptr %91, 0
  %94 = insertvalue { ptr, i32 } %93, i32 %92, 1
  resume { ptr, i32 } %94
}