; Function Attrs: mustprogress uwtable
define noundef nonnull align 8 dereferenceable(64) ptr @_ZNK6icu_7725ScientificNumberFormatter11MarkupStyle6formatERKNS_13UnicodeStringERNS_21FieldPositionIteratorES4_RS2_R10UErrorCode(ptr noundef nonnull align 8 dereferenceable(136) %0, ptr noundef nonnull align 8 dereferenceable(64) %1, ptr noundef nonnull align 8 dereferenceable(20) %2, ptr noundef nonnull align 8 dereferenceable(64) %3, ptr noundef nonnull returned align 8 dereferenceable(64) %4, ptr noundef nonnull readonly align 4 captures(none) dereferenceable(4) %5) unnamed_addr #0 align 2 personality ptr @__gxx_personality_v0 {
  %7 = alloca %"class.icu_77::FieldPosition", align 8
  %8 = load i32, ptr %5, align 4, !tbaa !6
  %9 = icmp slt i32 %8, 1
  br i1 %9, label %10, label %68

10:                                               ; preds = %6
  call void @llvm.lifetime.start.p0(i64 24, ptr nonnull %7) #7
  store ptr getelementptr inbounds nuw inrange(-16, 24) (i8, ptr @_ZTVN6icu_7713FieldPositionE, i64 16), ptr %7, align 8, !tbaa !3
  %11 = getelementptr inbounds nuw i8, ptr %7, i64 8
  store i32 -1, ptr %11, align 8, !tbaa !9
  %12 = getelementptr inbounds nuw i8, ptr %7, i64 12
  store i32 0, ptr %12, align 4, !tbaa !13
  %13 = getelementptr inbounds nuw i8, ptr %7, i64 16
  store i32 0, ptr %13, align 8, !tbaa !14
  %14 = getelementptr inbounds nuw i8, ptr %0, i64 72
  %15 = getelementptr inbounds nuw i8, ptr %0, i64 80
  %16 = getelementptr inbounds nuw i8, ptr %0, i64 84
  %17 = getelementptr inbounds nuw i8, ptr %3, i64 8
  %18 = getelementptr inbounds nuw i8, ptr %3, i64 12
  %19 = getelementptr inbounds nuw i8, ptr %0, i64 8
  %20 = getelementptr inbounds nuw i8, ptr %0, i64 16
  %21 = getelementptr inbounds nuw i8, ptr %0, i64 20
  br label %_ZN6icu_7713UnicodeString6appendERKS0_.exit26.outer

_ZN6icu_7713UnicodeString6appendERKS0_.exit26.outer: ; preds = %_ZN6icu_7713UnicodeString6appendERKS0_.exit26.outer.backedge, %10
  %.024.ph = phi i32 [ 0, %10 ], [ %.024.ph.be, %_ZN6icu_7713UnicodeString6appendERKS0_.exit26.outer.backedge ]
  br label %_ZN6icu_7713UnicodeString6appendERKS0_.exit26

_ZN6icu_7713UnicodeString6appendERKS0_.exit26:    ; preds = %_ZN6icu_7713UnicodeString6appendERKS0_.exit26.outer, %24
  %22 = invoke noundef signext i8 @_ZN6icu_7721FieldPositionIterator4nextERNS_13FieldPositionE(ptr noundef nonnull align 8 dereferenceable(20) %2, ptr noundef nonnull align 8 dereferenceable(20) %7)
          to label %23 unwind label %.loopexit.loopexit

23:                                               ; preds = %_ZN6icu_7713UnicodeString6appendERKS0_.exit26
  %.not25 = icmp eq i8 %22, 0
  br i1 %.not25, label %57, label %24

24:                                               ; preds = %23
  %25 = load i32, ptr %11, align 8, !tbaa !9
  switch i32 %25, label %_ZN6icu_7713UnicodeString6appendERKS0_.exit26 [
    i32 3, label %26
    i32 5, label %45
  ], !llvm.loop !21

.loopexit.loopexit:                               ; preds = %_ZN6icu_7713UnicodeString6appendERKS0_.exit26
  %lpad.loopexit34 = landingpad { ptr, i32 }
          cleanup
  br label %.loopexit

.loopexit.loopexit.split-lp:                      ; preds = %_ZN6icu_7713UnicodeString6appendERKS0_ii.exit27, %45, %_ZN6icu_7713UnicodeString6appendERKS0_.exit, %_ZN6icu_7713UnicodeString6appendERKS0_ii.exit, %26
  %lpad.loopexit.split-lp35 = landingpad { ptr, i32 }
          cleanup
  br label %.loopexit

.loopexit.split-lp:                               ; preds = %57
  %lpad.loopexit.split-lp = landingpad { ptr, i32 }
          cleanup
  br label %.loopexit

.loopexit:                                        ; preds = %.loopexit.loopexit, %.loopexit.loopexit.split-lp, %.loopexit.split-lp
  %lpad.phi = phi { ptr, i32 } [ %lpad.loopexit.split-lp, %.loopexit.split-lp ], [ %lpad.loopexit34, %.loopexit.loopexit ], [ %lpad.loopexit.split-lp35, %.loopexit.loopexit.split-lp ]
  call void @_ZN6icu_7713FieldPositionD1Ev(ptr noundef nonnull align 8 dereferenceable(20) %7) #7
  call void @llvm.lifetime.end.p0(i64 24, ptr nonnull %7) #7
  resume { ptr, i32 } %lpad.phi

26:                                               ; preds = %24
  %27 = load i32, ptr %12, align 4, !tbaa !13
  %28 = sub nsw i32 %27, %.024.ph
  %29 = invoke noundef nonnull align 8 dereferenceable(64) ptr @_ZN6icu_7713UnicodeString8doAppendERKS0_ii(ptr noundef nonnull align 8 dereferenceable(64) %4, ptr noundef nonnull align 8 dereferenceable(64) %1, i32 noundef %.024.ph, i32 noundef %28)
          to label %_ZN6icu_7713UnicodeString6appendERKS0_ii.exit unwind label %.loopexit.loopexit.split-lp

_ZN6icu_7713UnicodeString6appendERKS0_ii.exit:    ; preds = %26
  %30 = load i32, ptr %13, align 8, !tbaa !14
  %31 = load i16, ptr %17, align 8, !tbaa !17
  %32 = icmp slt i16 %31, 0
  %33 = ashr i16 %31, 5
  %34 = sext i16 %33 to i32
  %35 = load i32, ptr %18, align 4
  %36 = select i1 %32, i32 %35, i32 %34
  %37 = invoke noundef nonnull align 8 dereferenceable(64) ptr @_ZN6icu_7713UnicodeString8doAppendERKS0_ii(ptr noundef nonnull align 8 dereferenceable(64) %4, ptr noundef nonnull align 8 dereferenceable(64) %3, i32 noundef 0, i32 noundef %36)
          to label %_ZN6icu_7713UnicodeString6appendERKS0_.exit unwind label %.loopexit.loopexit.split-lp

_ZN6icu_7713UnicodeString6appendERKS0_.exit:      ; preds = %_ZN6icu_7713UnicodeString6appendERKS0_ii.exit
  %38 = load i16, ptr %20, align 8, !tbaa !17
  %39 = icmp slt i16 %38, 0
  %40 = ashr i16 %38, 5
  %41 = sext i16 %40 to i32
  %42 = load i32, ptr %21, align 4
  %43 = select i1 %39, i32 %42, i32 %41
  %44 = invoke noundef nonnull align 8 dereferenceable(64) ptr @_ZN6icu_7713UnicodeString8doAppendERKS0_ii(ptr noundef nonnull align 8 dereferenceable(64) %4, ptr noundef nonnull align 8 dereferenceable(64) %19, i32 noundef 0, i32 noundef %43)
          to label %_ZN6icu_7713UnicodeString6appendERKS0_.exit26.outer.backedge unwind label %.loopexit.loopexit.split-lp

_ZN6icu_7713UnicodeString6appendERKS0_.exit26.outer.backedge: ; preds = %_ZN6icu_7713UnicodeString6appendERKS0_.exit, %_ZN6icu_7713UnicodeString6appendERKS0_ii.exit27
  %.024.ph.be = phi i32 [ %49, %_ZN6icu_7713UnicodeString6appendERKS0_ii.exit27 ], [ %30, %_ZN6icu_7713UnicodeString6appendERKS0_.exit ]
  br label %_ZN6icu_7713UnicodeString6appendERKS0_.exit26.outer, !llvm.loop !21

45:                                               ; preds = %24
  %46 = load i32, ptr %13, align 8, !tbaa !14
  %47 = sub nsw i32 %46, %.024.ph
  %48 = invoke noundef nonnull align 8 dereferenceable(64) ptr @_ZN6icu_7713UnicodeString8doAppendERKS0_ii(ptr noundef nonnull align 8 dereferenceable(64) %4, ptr noundef nonnull align 8 dereferenceable(64) %1, i32 noundef %.024.ph, i32 noundef %47)
          to label %_ZN6icu_7713UnicodeString6appendERKS0_ii.exit27 unwind label %.loopexit.loopexit.split-lp

_ZN6icu_7713UnicodeString6appendERKS0_ii.exit27:  ; preds = %45
  %49 = load i32, ptr %13, align 8, !tbaa !14
  %50 = load i16, ptr %15, align 8, !tbaa !17
  %51 = icmp slt i16 %50, 0
  %52 = ashr i16 %50, 5
  %53 = sext i16 %52 to i32
  %54 = load i32, ptr %16, align 4
  %55 = select i1 %51, i32 %54, i32 %53
  %56 = invoke noundef nonnull align 8 dereferenceable(64) ptr @_ZN6icu_7713UnicodeString8doAppendERKS0_ii(ptr noundef nonnull align 8 dereferenceable(64) %4, ptr noundef nonnull align 8 dereferenceable(64) %14, i32 noundef 0, i32 noundef %55)
          to label %_ZN6icu_7713UnicodeString6appendERKS0_.exit26.outer.backedge unwind label %.loopexit.loopexit.split-lp

57:                                               ; preds = %23
  %58 = getelementptr inbounds nuw i8, ptr %1, i64 8
  %59 = load i16, ptr %58, align 8, !tbaa !17
  %60 = icmp slt i16 %59, 0
  %61 = ashr i16 %59, 5
  %62 = sext i16 %61 to i32
  %63 = getelementptr inbounds nuw i8, ptr %1, i64 12
  %64 = load i32, ptr %63, align 4
  %65 = select i1 %60, i32 %64, i32 %62
  %66 = sub nsw i32 %65, %.024.ph
  %67 = invoke noundef nonnull align 8 dereferenceable(64) ptr @_ZN6icu_7713UnicodeString8doAppendERKS0_ii(ptr noundef nonnull align 8 dereferenceable(64) %4, ptr noundef nonnull align 8 dereferenceable(64) %1, i32 noundef %.024.ph, i32 noundef %66)
          to label %_ZN6icu_7713UnicodeString6appendERKS0_ii.exit29 unwind label %.loopexit.split-lp

_ZN6icu_7713UnicodeString6appendERKS0_ii.exit29:  ; preds = %57
  call void @_ZN6icu_7713FieldPositionD1Ev(ptr noundef nonnull align 8 dereferenceable(20) %7) #7
  call void @llvm.lifetime.end.p0(i64 24, ptr nonnull %7) #7
  br label %68

68:                                               ; preds = %6, %_ZN6icu_7713UnicodeString6appendERKS0_ii.exit29
  ret ptr %4
}